target datalayout = "e-m:e-p270:32:32-p271:32:32-p272:64:64-i64:64-i128:128-f80:128-n8:16:32:64-S128"
target triple = "x86_64-pc-linux-gnu"

@.str.75 = private unnamed_addr constant [1 x i8] zeroinitializer, align 1
@git_gettext_enabled = external global i32, align 4
@.str.181 = private unnamed_addr constant [25 x i8] c"GIT_TEST_MAINT_SCHEDULER\00", align 1
@.str.209 = private unnamed_addr constant [22 x i8] c"git-maintenance@%s.%s\00", align 1
@.str.210 = private unnamed_addr constant [8 x i8] c"service\00", align 1
@.str.215 = private unnamed_addr constant [13 x i8] c"systemd/user\00", align 1
@.str.228 = private unnamed_addr constant [22 x i8] c"failed to delete '%s'\00", align 1

; Function Attrs: inlinehint nounwind uwtable
define internal i32 @const_error() #6 {
  ret i32 -1
}

; Function Attrs: inlinehint nounwind uwtable
define internal ptr @_(ptr noundef %0) #6 {
  %2 = alloca ptr, align 8
  %3 = alloca ptr, align 8
  store ptr %0, ptr %3, align 8, !tbaa !11
  %4 = load ptr, ptr %3, align 8, !tbaa !11
  %5 = load i8, ptr %4, align 1, !tbaa !93
  %6 = icmp ne i8 %5, 0
  br i1 %6, label %8, label %7

7:                                                ; preds = %1
  store ptr @.str.75, ptr %2, align 8
  br label %16

8:                                                ; preds = %1
  %9 = load i32, ptr @git_gettext_enabled, align 4, !tbaa !4
  %10 = icmp ne i32 %9, 0
  br i1 %10, label %13, label %11

11:                                               ; preds = %8
  %12 = load ptr, ptr %3, align 8, !tbaa !11
  store ptr %12, ptr %2, align 8
  br label %16

13:                                               ; preds = %8
  %14 = load ptr, ptr %3, align 8, !tbaa !11
  %15 = call ptr @dcgettext(ptr noundef null, ptr noundef %14, i32 noundef 5) #11
  store ptr %15, ptr %2, align 8
  br label %16

16:                                               ; preds = %13, %11, %7
  %17 = load ptr, ptr %2, align 8
  ret ptr %17
}

; Function Attrs: inlinehint nounwind uwtable
define internal i32 @is_missing_file_error(i32 noundef %0) #6 {
  %2 = alloca i32, align 4
  store i32 %0, ptr %2, align 4, !tbaa !4
  %3 = load i32, ptr %2, align 4, !tbaa !4
  %4 = icmp eq i32 %3, 2
  br i1 %4, label %8, label %5

5:                                                ; preds = %1
  %6 = load i32, ptr %2, align 4, !tbaa !4
  %7 = icmp eq i32 %6, 20
  br label %8

8:                                                ; preds = %5, %1
  %9 = phi i1 [ true, %1 ], [ %7, %5 ]
  %10 = zext i1 %9 to i32
  ret i32 %10
}

; Function Attrs: nounwind uwtable
define internal ptr @xdg_config_home_systemd(ptr noundef %0) #0 {
  %2 = alloca ptr, align 8
  store ptr %0, ptr %2, align 8, !tbaa !11
  %3 = load ptr, ptr %2, align 8, !tbaa !11
  %4 = call ptr @xdg_config_home_for(ptr noundef @.str.215, ptr noundef %3)
  ret ptr %4
}

; Function Attrs: nounwind uwtable
define internal i32 @systemd_timer_delete_service_template() #0 {
  %1 = alloca i32, align 4
  %2 = alloca ptr, align 8
  %3 = alloca ptr, align 8
  call void @llvm.lifetime.start.p0(i64 4, ptr %1) #11
  store i32 0, ptr %1, align 4, !tbaa !4
  call void @llvm.lifetime.start.p0(i64 8, ptr %2) #11
  %4 = call ptr (ptr, ...) @xstrfmt(ptr noundef @.str.209, ptr noundef @.str.75, ptr noundef @.str.210)
  store ptr %4, ptr %2, align 8, !tbaa !11
  call void @llvm.lifetime.start.p0(i64 8, ptr %3) #11
  %5 = load ptr, ptr %2, align 8, !tbaa !11
  %6 = call ptr @xdg_config_home_systemd(ptr noundef %5)
  store ptr %6, ptr %3, align 8, !tbaa !11
  %7 = load ptr, ptr %3, align 8, !tbaa !11
  %8 = call i32 @unlink(ptr noundef %7) #11
  %9 = icmp ne i32 %8, 0
  br i1 %9, label %10, label %20

10:                                               ; preds = %0
  %11 = call ptr @__errno_location() #14
  %12 = load i32, ptr %11, align 4, !tbaa !4
  %13 = call i32 @is_missing_file_error(i32 noundef %12)
  %14 = icmp ne i32 %13, 0
  br i1 %14, label %20, label %15

15:                                               ; preds = %10
  %16 = call ptr @_(ptr noundef @.str.228)
  %17 = load ptr, ptr %3, align 8, !tbaa !11
  %18 = call i32 (ptr, ...) @error_errno(ptr noundef %16, ptr noundef %17)
  %19 = call i32 @const_error()
  store i32 %19, ptr %1, align 4, !tbaa !4
  br label %20

20:                                               ; preds = %15, %10, %0
  %21 = load ptr, ptr %3, align 8, !tbaa !11
  call void @free(ptr noundef %21) #11
  %22 = load ptr, ptr %2, align 8, !tbaa !11
  call void @free(ptr noundef %22) #11
  %23 = load i32, ptr %1, align 4, !tbaa !4
  call void @llvm.lifetime.end.p0(i64 8, ptr %3) #11
  call void @llvm.lifetime.end.p0(i64 8, ptr %2) #11
  call void @llvm.lifetime.end.p0(i64 4, ptr %1) #11
  ret i32 %23
}

; Function Attrs: nounwind uwtable
define internal i32 @systemd_timer_delete_unit_files() #0 {
  call void @systemd_timer_delete_stale_timer_templates()
  %1 = call i32 @systemd_timer_delete_timer_file(i32 noundef 3)
  %2 = call i32 @systemd_timer_delete_timer_file(i32 noundef 2)
  %3 = or i32 %1, %2
  %4 = call i32 @systemd_timer_delete_timer_file(i32 noundef 1)
  %5 = or i32 %3, %4
  %6 = call i32 @systemd_timer_delete_service_template()
  %7 = or i32 %5, %6
  ret i32 %7
}

; Function Attrs: nounwind uwtable
define internal i32 @get_random_minute() #0 {
  %1 = alloca i32, align 4
  %2 = call ptr @getenv(ptr noundef @.str.181) #11
  %3 = icmp ne ptr %2, null
  br i1 %3, label %4, label %5

4:                                                ; preds = %0
  store i32 13, ptr %1, align 4
  br label %8

5:                                                ; preds = %0
  %6 = call i32 @git_rand(i32 noundef 0)
  %7 = urem i32 %6, 60
  store i32 %7, ptr %1, align 4
  br label %8

8:                                                ; preds = %5, %4
  %9 = load i32, ptr %1, align 4
  ret i32 %9
}

; Function Attrs: nounwind uwtable
define internal i32 @systemd_timer_delete_units() #0 {
  %1 = alloca i32, align 4
  call void @llvm.lifetime.start.p0(i64 4, ptr %1) #11
  %2 = call i32 @get_random_minute()
  store i32 %2, ptr %1, align 4, !tbaa !4
  %3 = load i32, ptr %1, align 4, !tbaa !4
  %4 = call i32 @systemd_timer_enable_unit(i32 noundef 0, i32 noundef 3, i32 noundef %3)
  %5 = load i32, ptr %1, align 4, !tbaa !4
  %6 = call i32 @systemd_timer_enable_unit(i32 noundef 0, i32 noundef 2, i32 noundef %5)
  %7 = or i32 %4, %6
  %8 = load i32, ptr %1, align 4, !tbaa !4
  %9 = call i32 @systemd_timer_enable_unit(i32 noundef 0, i32 noundef 1, i32 noundef %8)
  %10 = or i32 %7, %9
  %11 = call i32 @systemd_timer_delete_unit_files()
  %12 = or i32 %10, %11
  call void @llvm.lifetime.end.p0(i64 4, ptr %1) #11
  ret i32 %12
}