; Function Attrs: nounwind uwtable
define internal fastcc i32 @systemd_timer_delete_units() unnamed_addr #0 {
  %1 = tail call ptr @getenv(ptr noundef nonnull @.str.181) #21
  %.not.i = icmp eq ptr %1, null
  br i1 %.not.i, label %2, label %get_random_minute.exit

2:                                                ; preds = %0
  %3 = tail call i32 @git_rand(i32 noundef 0) #21
  %4 = urem i32 %3, 60
  br label %get_random_minute.exit

get_random_minute.exit:                           ; preds = %0, %2
  %.0.i = phi i32 [ %4, %2 ], [ 13, %0 ]
  %5 = tail call fastcc i32 @systemd_timer_enable_unit(i32 noundef 0, i32 noundef 3, i32 noundef %.0.i)
  %6 = tail call fastcc i32 @systemd_timer_enable_unit(i32 noundef 0, i32 noundef 2, i32 noundef %.0.i)
  %7 = tail call fastcc i32 @systemd_timer_enable_unit(i32 noundef 0, i32 noundef 1, i32 noundef %.0.i)
  tail call fastcc void @systemd_timer_delete_stale_timer_templates()
  %8 = tail call fastcc i32 @systemd_timer_delete_timer_file(i32 noundef 3)
  %9 = tail call fastcc i32 @systemd_timer_delete_timer_file(i32 noundef 2)
  %10 = tail call fastcc i32 @systemd_timer_delete_timer_file(i32 noundef 1)
  %11 = tail call ptr (ptr, ...) @xstrfmt(ptr noundef nonnull @.str.209, ptr noundef nonnull @.str.75, ptr noundef nonnull @.str.210) #21
  %12 = tail call ptr @xdg_config_home_for(ptr noundef nonnull @.str.215, ptr noundef %11) #21
  %13 = tail call i32 @unlink(ptr noundef %12) #21
  %.not.i.i = icmp eq i32 %13, 0
  br i1 %.not.i.i, label %systemd_timer_delete_unit_files.exit, label %14

14:                                               ; preds = %get_random_minute.exit
  %15 = tail call ptr @__errno_location() #24
  %16 = load i32, ptr %15, align 4, !tbaa !4
  switch i32 %16, label %17 [
    i32 20, label %systemd_timer_delete_unit_files.exit
    i32 2, label %systemd_timer_delete_unit_files.exit
  ]

17:                                               ; preds = %14
  %18 = load i32, ptr @git_gettext_enabled, align 4, !tbaa !4
  %.not4.i.i.i = icmp eq i32 %18, 0
  br i1 %.not4.i.i.i, label %_.exit.i.i, label %19

19:                                               ; preds = %17
  %20 = tail call ptr @dcgettext(ptr noundef null, ptr noundef nonnull @.str.228, i32 noundef 5) #21
  br label %_.exit.i.i

_.exit.i.i:                                       ; preds = %19, %17
  %.0.i.i.i = phi ptr [ %20, %19 ], [ @.str.228, %17 ]
  %21 = tail call i32 (ptr, ...) @error_errno(ptr noundef %.0.i.i.i, ptr noundef %12) #21
  br label %systemd_timer_delete_unit_files.exit

systemd_timer_delete_unit_files.exit:             ; preds = %get_random_minute.exit, %14, %14, %_.exit.i.i
  %.0.i.i = phi i32 [ 0, %14 ], [ -1, %_.exit.i.i ], [ 0, %get_random_minute.exit ], [ 0, %14 ]
  tail call void @free(ptr noundef %12) #21
  tail call void @free(ptr noundef %11) #21
  %22 = or i32 %6, %5
  %23 = or i32 %22, %7
  %24 = or i32 %23, %8
  %25 = or i32 %24, %9
  %26 = or i32 %25, %10
  %27 = or i32 %26, %.0.i.i
  ret i32 %27
}